target datalayout = "e-m:e-p270:32:32-p271:32:32-p272:64:64-i64:64-i128:128-f80:128-n8:16:32:64-S128"
target triple = "x86_64-pc-linux-gnu"

; Function Attrs: mustprogress nounwind uwtable
define linkonce_odr hidden noundef ptr @_ZNK4Node10as_IfFalseEv(ptr noundef nonnull align 8 dereferenceable(52) %0) #1 comdat align 2 {
  %2 = alloca ptr, align 8
  store ptr %0, ptr %2, align 8
  %3 = load ptr, ptr %2, align 8
  ret ptr %3
}

; Function Attrs: mustprogress nounwind uwtable
define hidden noundef ptr @_ZNK23OuterStripMinedLoopNode15outer_loop_exitEv(ptr noundef nonnull align 8 dereferenceable(72) %0) unnamed_addr #1 align 2 {
  %2 = alloca ptr, align 8
  %3 = alloca ptr, align 8
  %4 = alloca ptr, align 8
  %5 = alloca ptr, align 8
  store ptr %0, ptr %3, align 8
  %6 = load ptr, ptr %3, align 8
  %7 = load ptr, ptr %6, align 8
  %8 = getelementptr inbounds ptr, ptr %7, i64 26
  %9 = load ptr, ptr %8, align 8
  %10 = call noundef ptr %9(ptr noundef nonnull align 8 dereferenceable(72) %6)
  store ptr %10, ptr %4, align 8
  %11 = load ptr, ptr %4, align 8
  %12 = icmp eq ptr %11, null
  br i1 %12, label %13, label %14

13:                                               ; preds = %1
  store ptr null, ptr %2, align 8
  br label %23

14:                                               ; preds = %1
  %15 = load ptr, ptr %4, align 8
  %16 = call noundef ptr @_ZNK9MultiNode16proj_out_or_nullEj(ptr noundef nonnull align 8 dereferenceable(52) %15, i32 noundef 0)
  store ptr %16, ptr %5, align 8
  %17 = load ptr, ptr %5, align 8
  %18 = icmp eq ptr %17, null
  br i1 %18, label %19, label %20

19:                                               ; preds = %14
  store ptr null, ptr %2, align 8
  br label %23

20:                                               ; preds = %14
  %21 = load ptr, ptr %5, align 8
  %22 = call noundef ptr @_ZNK4Node10as_IfFalseEv(ptr noundef nonnull align 8 dereferenceable(52) %21)
  store ptr %22, ptr %2, align 8
  br label %23

23:                                               ; preds = %20, %19, %13
  %24 = load ptr, ptr %2, align 8
  ret ptr %24
}