; Function Attrs: mustprogress nounwind uwtable
define hidden noundef ptr @_ZNK23OuterStripMinedLoopNode15outer_loop_exitEv(ptr noundef nonnull align 8 dereferenceable(72) %0) unnamed_addr #0 align 2 {
  %2 = load ptr, ptr %0, align 8
  %3 = getelementptr inbounds i8, ptr %2, i64 208
  %4 = load ptr, ptr %3, align 8
  %5 = tail call noundef ptr %4(ptr noundef nonnull align 8 dereferenceable(72) %0) #15
  %6 = icmp eq ptr %5, null
  br i1 %6, label %9, label %7

7:                                                ; preds = %1
  %8 = tail call noundef ptr @_ZNK9MultiNode16proj_out_or_nullEj(ptr noundef nonnull align 8 dereferenceable(52) %5, i32 noundef 0) #15
  br label %9

9:                                                ; preds = %7, %1
  %.0 = phi ptr [ null, %1 ], [ %8, %7 ]
  ret ptr %.0
}